
styrmodulen.elf:     file format elf32-avr

Sections:
Idx Name          Size      VMA       LMA       File off  Algn
  0 .data         00000048  00800100  00000936  000009ca  2**0
                  CONTENTS, ALLOC, LOAD, DATA
  1 .text         00000936  00000000  00000000  00000094  2**1
                  CONTENTS, ALLOC, LOAD, READONLY, CODE
  2 .bss          0000004d  00800148  00800148  00000a12  2**0
                  ALLOC
  3 .comment      00000030  00000000  00000000  00000a12  2**0
                  CONTENTS, READONLY
  4 .note.gnu.avr.deviceinfo 00000040  00000000  00000000  00000a44  2**2
                  CONTENTS, READONLY
  5 .debug_aranges 00000110  00000000  00000000  00000a84  2**0
                  CONTENTS, READONLY, DEBUGGING
  6 .debug_info   000009c5  00000000  00000000  00000b94  2**0
                  CONTENTS, READONLY, DEBUGGING
  7 .debug_abbrev 000002bd  00000000  00000000  00001559  2**0
                  CONTENTS, READONLY, DEBUGGING
  8 .debug_line   0000123d  00000000  00000000  00001816  2**0
                  CONTENTS, READONLY, DEBUGGING
  9 .debug_frame  000002c0  00000000  00000000  00002a54  2**2
                  CONTENTS, READONLY, DEBUGGING
 10 .debug_str    000105ad  00000000  00000000  00002d14  2**0
                  CONTENTS, READONLY, DEBUGGING
 11 .debug_loc    000005b0  00000000  00000000  000132c1  2**0
                  CONTENTS, READONLY, DEBUGGING
 12 .debug_ranges 00000108  00000000  00000000  00013871  2**0
                  CONTENTS, READONLY, DEBUGGING
 13 .debug_macro  00003f0e  00000000  00000000  00013979  2**0
                  CONTENTS, READONLY, DEBUGGING

Disassembly of section .text:

00000000 <__vectors>:
   0:	54 c0       	rjmp	.+168    	; 0xaa <__ctors_end>
   2:	00 00       	nop
   4:	76 c3       	rjmp	.+1772   	; 0x6f2 <__vector_1>
   6:	00 00       	nop
   8:	a5 c2       	rjmp	.+1354   	; 0x554 <__vector_2>
   a:	00 00       	nop
   c:	cb c2       	rjmp	.+1430   	; 0x5a4 <__vector_3>
   e:	00 00       	nop
  10:	69 c0       	rjmp	.+210    	; 0xe4 <__bad_interrupt>
  12:	00 00       	nop
  14:	67 c0       	rjmp	.+206    	; 0xe4 <__bad_interrupt>
  16:	00 00       	nop
  18:	65 c0       	rjmp	.+202    	; 0xe4 <__bad_interrupt>
  1a:	00 00       	nop
  1c:	63 c0       	rjmp	.+198    	; 0xe4 <__bad_interrupt>
  1e:	00 00       	nop
  20:	61 c0       	rjmp	.+194    	; 0xe4 <__bad_interrupt>
  22:	00 00       	nop
  24:	5f c0       	rjmp	.+190    	; 0xe4 <__bad_interrupt>
  26:	00 00       	nop
  28:	5d c0       	rjmp	.+186    	; 0xe4 <__bad_interrupt>
  2a:	00 00       	nop
  2c:	5b c0       	rjmp	.+182    	; 0xe4 <__bad_interrupt>
  2e:	00 00       	nop
  30:	59 c0       	rjmp	.+178    	; 0xe4 <__bad_interrupt>
  32:	00 00       	nop
  34:	49 c2       	rjmp	.+1170   	; 0x4c8 <__vector_13>
  36:	00 00       	nop
  38:	55 c0       	rjmp	.+170    	; 0xe4 <__bad_interrupt>
  3a:	00 00       	nop
  3c:	53 c0       	rjmp	.+166    	; 0xe4 <__bad_interrupt>
  3e:	00 00       	nop
  40:	51 c0       	rjmp	.+162    	; 0xe4 <__bad_interrupt>
  42:	00 00       	nop
  44:	4f c0       	rjmp	.+158    	; 0xe4 <__bad_interrupt>
  46:	00 00       	nop
  48:	4d c0       	rjmp	.+154    	; 0xe4 <__bad_interrupt>
  4a:	00 00       	nop
  4c:	4b c0       	rjmp	.+150    	; 0xe4 <__bad_interrupt>
  4e:	00 00       	nop
  50:	49 c0       	rjmp	.+146    	; 0xe4 <__bad_interrupt>
  52:	00 00       	nop
  54:	47 c0       	rjmp	.+142    	; 0xe4 <__bad_interrupt>
  56:	00 00       	nop
  58:	45 c0       	rjmp	.+138    	; 0xe4 <__bad_interrupt>
  5a:	00 00       	nop
  5c:	43 c0       	rjmp	.+134    	; 0xe4 <__bad_interrupt>
  5e:	00 00       	nop
  60:	41 c0       	rjmp	.+130    	; 0xe4 <__bad_interrupt>
  62:	00 00       	nop
  64:	3f c0       	rjmp	.+126    	; 0xe4 <__bad_interrupt>
  66:	00 00       	nop
  68:	3d c0       	rjmp	.+122    	; 0xe4 <__bad_interrupt>
  6a:	00 00       	nop
  6c:	3b c0       	rjmp	.+118    	; 0xe4 <__bad_interrupt>
  6e:	00 00       	nop
  70:	39 c0       	rjmp	.+114    	; 0xe4 <__bad_interrupt>
  72:	00 00       	nop
  74:	37 c0       	rjmp	.+110    	; 0xe4 <__bad_interrupt>
  76:	00 00       	nop
  78:	35 c0       	rjmp	.+106    	; 0xe4 <__bad_interrupt>
  7a:	00 00       	nop
  7c:	33 c0       	rjmp	.+102    	; 0xe4 <__bad_interrupt>
  7e:	00 00       	nop
  80:	31 c0       	rjmp	.+98     	; 0xe4 <__bad_interrupt>
  82:	00 00       	nop
  84:	2f c0       	rjmp	.+94     	; 0xe4 <__bad_interrupt>
  86:	00 00       	nop
  88:	2d c0       	rjmp	.+90     	; 0xe4 <__bad_interrupt>
  8a:	00 00       	nop
  8c:	c0 03       	fmuls	r20, r16
  8e:	18 04       	cpc	r1, r8
  90:	c5 03       	fmuls	r20, r21
  92:	18 04       	cpc	r1, r8
  94:	18 04       	cpc	r1, r8
  96:	18 04       	cpc	r1, r8
  98:	18 04       	cpc	r1, r8
  9a:	18 04       	cpc	r1, r8
  9c:	18 04       	cpc	r1, r8
  9e:	d1 03       	fmuls	r21, r17
  a0:	dd 03       	fmulsu	r21, r21
  a2:	e9 03       	fmulsu	r22, r17
  a4:	f5 03       	fmuls	r23, r21
  a6:	01 04       	cpc	r0, r1
  a8:	0d 04       	cpc	r0, r13

000000aa <__ctors_end>:
  aa:	11 24       	eor	r1, r1
  ac:	1f be       	out	0x3f, r1	; 63
  ae:	cf ef       	ldi	r28, 0xFF	; 255
  b0:	d0 e4       	ldi	r29, 0x40	; 64
  b2:	de bf       	out	0x3e, r29	; 62
  b4:	cd bf       	out	0x3d, r28	; 61

000000b6 <__do_copy_data>:
  b6:	11 e0       	ldi	r17, 0x01	; 1
  b8:	a0 e0       	ldi	r26, 0x00	; 0
  ba:	b1 e0       	ldi	r27, 0x01	; 1
  bc:	e6 e3       	ldi	r30, 0x36	; 54
  be:	f9 e0       	ldi	r31, 0x09	; 9
  c0:	00 e0       	ldi	r16, 0x00	; 0
  c2:	0b bf       	out	0x3b, r16	; 59
  c4:	02 c0       	rjmp	.+4      	; 0xca <__do_copy_data+0x14>
  c6:	07 90       	elpm	r0, Z+
  c8:	0d 92       	st	X+, r0
  ca:	a8 34       	cpi	r26, 0x48	; 72
  cc:	b1 07       	cpc	r27, r17
  ce:	d9 f7       	brne	.-10     	; 0xc6 <__do_copy_data+0x10>

000000d0 <__do_clear_bss>:
  d0:	21 e0       	ldi	r18, 0x01	; 1
  d2:	a8 e4       	ldi	r26, 0x48	; 72
  d4:	b1 e0       	ldi	r27, 0x01	; 1
  d6:	01 c0       	rjmp	.+2      	; 0xda <.do_clear_bss_start>

000000d8 <.do_clear_bss_loop>:
  d8:	1d 92       	st	X+, r1

000000da <.do_clear_bss_start>:
  da:	a5 39       	cpi	r26, 0x95	; 149
  dc:	b2 07       	cpc	r27, r18
  de:	e1 f7       	brne	.-8      	; 0xd8 <.do_clear_bss_loop>
  e0:	a9 d3       	rcall	.+1874   	; 0x834 <main>
  e2:	27 c4       	rjmp	.+2126   	; 0x932 <_exit>

000000e4 <__bad_interrupt>:
  e4:	8d cf       	rjmp	.-230    	; 0x0 <__vectors>

000000e6 <board_init>:
#include <asf.h>
#include <board.h>
#include <conf_board.h>

void board_init(void)
{
  e6:	08 95       	ret

000000e8 <manual_drive>:
		current_position=linje_RGBsveng();
		linje();
	}
	else{
		current_position=linje_get_error();
		linje();
  e8:	80 91 4e 01 	lds	r24, 0x014E
  ec:	90 91 4f 01 	lds	r25, 0x014F
  f0:	05 97       	sbiw	r24, 0x05	; 5
  f2:	0c f0       	brlt	.+2      	; 0xf6 <manual_drive+0xe>
  f4:	59 c0       	rjmp	.+178    	; 0x1a8 <manual_drive+0xc0>
  f6:	80 91 72 01 	lds	r24, 0x0172
  fa:	90 91 73 01 	lds	r25, 0x0173
  fe:	00 97       	sbiw	r24, 0x00	; 0
 100:	21 f4       	brne	.+8      	; 0x10a <manual_drive+0x22>
 102:	15 b8       	out	0x05, r1	; 5
 104:	17 bc       	out	0x27, r1	; 39
 106:	18 bc       	out	0x28, r1	; 40
 108:	08 95       	ret
 10a:	81 30       	cpi	r24, 0x01	; 1
 10c:	91 05       	cpc	r25, r1
 10e:	49 f4       	brne	.+18     	; 0x122 <manual_drive+0x3a>
 110:	85 b1       	in	r24, 0x05	; 5
 112:	15 b8       	out	0x05, r1	; 5
 114:	80 91 58 01 	lds	r24, 0x0158
 118:	87 bd       	out	0x27, r24	; 39
 11a:	80 91 56 01 	lds	r24, 0x0156
 11e:	88 bd       	out	0x28, r24	; 40
 120:	08 95       	ret
 122:	82 30       	cpi	r24, 0x02	; 2
 124:	91 05       	cpc	r25, r1
 126:	59 f4       	brne	.+22     	; 0x13e <manual_drive+0x56>
 128:	85 b1       	in	r24, 0x05	; 5
 12a:	80 66       	ori	r24, 0x60	; 96
 12c:	85 b9       	out	0x05, r24	; 5
 12e:	80 91 58 01 	lds	r24, 0x0158
 132:	8d 50       	subi	r24, 0x0D	; 13
 134:	87 bd       	out	0x27, r24	; 39
 136:	80 91 56 01 	lds	r24, 0x0156
 13a:	88 bd       	out	0x28, r24	; 40
 13c:	08 95       	ret
 13e:	83 30       	cpi	r24, 0x03	; 3
 140:	91 05       	cpc	r25, r1
 142:	49 f4       	brne	.+18     	; 0x156 <manual_drive+0x6e>
 144:	85 b1       	in	r24, 0x05	; 5
 146:	15 b8       	out	0x05, r1	; 5
 148:	80 91 58 01 	lds	r24, 0x0158
 14c:	87 bd       	out	0x27, r24	; 39
 14e:	80 91 56 01 	lds	r24, 0x0156
 152:	88 bd       	out	0x28, r24	; 40
 154:	08 95       	ret
 156:	84 30       	cpi	r24, 0x04	; 4
 158:	91 05       	cpc	r25, r1
 15a:	49 f4       	brne	.+18     	; 0x16e <manual_drive+0x86>
 15c:	85 b1       	in	r24, 0x05	; 5
 15e:	85 b9       	out	0x05, r24	; 5
 160:	80 91 58 01 	lds	r24, 0x0158
 164:	87 bd       	out	0x27, r24	; 39
 166:	80 91 56 01 	lds	r24, 0x0156
 16a:	88 bd       	out	0x28, r24	; 40
 16c:	08 95       	ret
 16e:	85 30       	cpi	r24, 0x05	; 5
 170:	91 05       	cpc	r25, r1
 172:	51 f4       	brne	.+20     	; 0x188 <manual_drive+0xa0>
 174:	85 b1       	in	r24, 0x05	; 5
 176:	15 b8       	out	0x05, r1	; 5
 178:	2e 9a       	sbi	0x05, 6	; 5
 17a:	80 91 58 01 	lds	r24, 0x0158
 17e:	87 bd       	out	0x27, r24	; 39
 180:	80 91 56 01 	lds	r24, 0x0156
 184:	88 bd       	out	0x28, r24	; 40
 186:	08 95       	ret
 188:	06 97       	sbiw	r24, 0x06	; 6
 18a:	49 f4       	brne	.+18     	; 0x19e <manual_drive+0xb6>
 18c:	2e 98       	cbi	0x05, 6	; 5
 18e:	2d 9a       	sbi	0x05, 5	; 5
 190:	80 91 58 01 	lds	r24, 0x0158
 194:	87 bd       	out	0x27, r24	; 39
 196:	80 91 56 01 	lds	r24, 0x0156
 19a:	88 bd       	out	0x28, r24	; 40
 19c:	08 95       	ret
 19e:	10 92 73 01 	sts	0x0173, r1
 1a2:	10 92 72 01 	sts	0x0172, r1
 1a6:	08 95       	ret
 1a8:	15 b8       	out	0x05, r1	; 5
 1aa:	17 bc       	out	0x27, r1	; 39
 1ac:	18 bc       	out	0x28, r1	; 40
 1ae:	08 95       	ret

000001b0 <labyreg>:
 1b0:	f8 94       	cli
 1b2:	80 91 8b 01 	lds	r24, 0x018B
 1b6:	90 91 8c 01 	lds	r25, 0x018C
 1ba:	20 91 78 01 	lds	r18, 0x0178
 1be:	30 91 79 01 	lds	r19, 0x0179
 1c2:	78 94       	sei
 1c4:	82 1b       	sub	r24, r18
 1c6:	93 0b       	sbc	r25, r19
 1c8:	90 93 93 01 	sts	0x0193, r25
 1cc:	80 93 92 01 	sts	0x0192, r24
 1d0:	20 91 70 01 	lds	r18, 0x0170
 1d4:	30 91 71 01 	lds	r19, 0x0171
 1d8:	ac 01       	movw	r20, r24
 1da:	42 1b       	sub	r20, r18
 1dc:	53 0b       	sbc	r21, r19
 1de:	50 93 6f 01 	sts	0x016F, r21
 1e2:	40 93 6e 01 	sts	0x016E, r20
 1e6:	20 91 44 01 	lds	r18, 0x0144
 1ea:	30 91 45 01 	lds	r19, 0x0145
 1ee:	82 9f       	mul	r24, r18
 1f0:	b0 01       	movw	r22, r0
 1f2:	83 9f       	mul	r24, r19
 1f4:	70 0d       	add	r23, r0
 1f6:	92 9f       	mul	r25, r18
 1f8:	70 0d       	add	r23, r0
 1fa:	11 24       	eor	r1, r1
 1fc:	e0 91 42 01 	lds	r30, 0x0142
 200:	f0 91 43 01 	lds	r31, 0x0143
 204:	4e 9f       	mul	r20, r30
 206:	90 01       	movw	r18, r0
 208:	4f 9f       	mul	r20, r31
 20a:	30 0d       	add	r19, r0
 20c:	5e 9f       	mul	r21, r30
 20e:	30 0d       	add	r19, r0
 210:	11 24       	eor	r1, r1
 212:	26 0f       	add	r18, r22
 214:	37 1f       	adc	r19, r23
 216:	30 93 8e 01 	sts	0x018E, r19
 21a:	20 93 8d 01 	sts	0x018D, r18
 21e:	90 93 71 01 	sts	0x0171, r25
 222:	80 93 70 01 	sts	0x0170, r24
 226:	12 16       	cp	r1, r18
 228:	13 06       	cpc	r1, r19
 22a:	44 f4       	brge	.+16     	; 0x23c <labyreg+0x8c>
 22c:	80 91 58 01 	lds	r24, 0x0158
 230:	82 1b       	sub	r24, r18
 232:	87 bd       	out	0x27, r24	; 39
 234:	80 91 56 01 	lds	r24, 0x0156
 238:	88 bd       	out	0x28, r24	; 40
 23a:	08 95       	ret
 23c:	33 23       	and	r19, r19
 23e:	54 f4       	brge	.+20     	; 0x254 <labyreg+0xa4>
 240:	80 91 58 01 	lds	r24, 0x0158
 244:	87 bd       	out	0x27, r24	; 39
 246:	90 91 8d 01 	lds	r25, 0x018D
 24a:	80 91 56 01 	lds	r24, 0x0156
 24e:	89 0f       	add	r24, r25
 250:	88 bd       	out	0x28, r24	; 40
 252:	08 95       	ret
 254:	23 2b       	or	r18, r19
 256:	31 f4       	brne	.+12     	; 0x264 <labyreg+0xb4>
 258:	80 91 58 01 	lds	r24, 0x0158
 25c:	87 bd       	out	0x27, r24	; 39
 25e:	80 91 56 01 	lds	r24, 0x0156
 262:	88 bd       	out	0x28, r24	; 40
 264:	08 95       	ret

00000266 <linje>:
 266:	f8 94       	cli
 268:	e0 91 64 01 	lds	r30, 0x0164
 26c:	f0 91 65 01 	lds	r31, 0x0165
 270:	78 94       	sei
 272:	20 91 6c 01 	lds	r18, 0x016C
 276:	30 91 6d 01 	lds	r19, 0x016D
 27a:	2e 1b       	sub	r18, r30
 27c:	3f 0b       	sbc	r19, r31
 27e:	30 93 6b 01 	sts	0x016B, r19
 282:	20 93 6a 01 	sts	0x016A, r18
 286:	80 91 66 01 	lds	r24, 0x0166
 28a:	90 91 67 01 	lds	r25, 0x0167
 28e:	a9 01       	movw	r20, r18
 290:	48 1b       	sub	r20, r24
 292:	59 0b       	sbc	r21, r25
 294:	ca 01       	movw	r24, r20
 296:	6a e0       	ldi	r22, 0x0A	; 10
 298:	70 e0       	ldi	r23, 0x00	; 0
 29a:	1b d3       	rcall	.+1590   	; 0x8d2 <__divmodhi4>
 29c:	70 93 6f 01 	sts	0x016F, r23
 2a0:	60 93 6e 01 	sts	0x016E, r22
 2a4:	80 91 40 01 	lds	r24, 0x0140
 2a8:	90 91 41 01 	lds	r25, 0x0141
 2ac:	28 9f       	mul	r18, r24
 2ae:	a0 01       	movw	r20, r0
 2b0:	29 9f       	mul	r18, r25
 2b2:	50 0d       	add	r21, r0
 2b4:	38 9f       	mul	r19, r24
 2b6:	50 0d       	add	r21, r0
 2b8:	11 24       	eor	r1, r1
 2ba:	a0 91 3e 01 	lds	r26, 0x013E
 2be:	b0 91 3f 01 	lds	r27, 0x013F
 2c2:	6a 9f       	mul	r22, r26
 2c4:	c0 01       	movw	r24, r0
 2c6:	6b 9f       	mul	r22, r27
 2c8:	90 0d       	add	r25, r0
 2ca:	7a 9f       	mul	r23, r26
 2cc:	90 0d       	add	r25, r0
 2ce:	11 24       	eor	r1, r1
 2d0:	84 0f       	add	r24, r20
 2d2:	95 1f       	adc	r25, r21
 2d4:	90 93 69 01 	sts	0x0169, r25
 2d8:	80 93 68 01 	sts	0x0168, r24
 2dc:	30 93 67 01 	sts	0x0167, r19
 2e0:	20 93 66 01 	sts	0x0166, r18
 2e4:	99 23       	and	r25, r25
 2e6:	3c f4       	brge	.+14     	; 0x2f6 <linje+0x90>
 2e8:	90 91 58 01 	lds	r25, 0x0158
 2ec:	89 0f       	add	r24, r25
 2ee:	87 bd       	out	0x27, r24	; 39
 2f0:	80 91 56 01 	lds	r24, 0x0156
 2f4:	88 bd       	out	0x28, r24	; 40
 2f6:	20 91 68 01 	lds	r18, 0x0168
 2fa:	30 91 69 01 	lds	r19, 0x0169
 2fe:	12 16       	cp	r1, r18
 300:	13 06       	cpc	r1, r19
 302:	3c f4       	brge	.+14     	; 0x312 <linje+0xac>
 304:	80 91 56 01 	lds	r24, 0x0156
 308:	82 1b       	sub	r24, r18
 30a:	88 bd       	out	0x28, r24	; 40
 30c:	80 91 58 01 	lds	r24, 0x0158
 310:	87 bd       	out	0x27, r24	; 39
 312:	ef 2b       	or	r30, r31
 314:	31 f4       	brne	.+12     	; 0x322 <linje+0xbc>
 316:	80 91 58 01 	lds	r24, 0x0158
 31a:	87 bd       	out	0x27, r24	; 39
 31c:	80 91 56 01 	lds	r24, 0x0156
 320:	88 bd       	out	0x28, r24	; 40
 322:	08 95       	ret

00000324 <turn_left>:
 324:	2e 98       	cbi	0x05, 6	; 5
 326:	2d 9a       	sbi	0x05, 5	; 5
 328:	80 91 58 01 	lds	r24, 0x0158
 32c:	87 bd       	out	0x27, r24	; 39
 32e:	80 91 56 01 	lds	r24, 0x0156
 332:	88 bd       	out	0x28, r24	; 40
 334:	08 95       	ret

00000336 <turn_right>:
 336:	2e 9a       	sbi	0x05, 6	; 5
 338:	2d 98       	cbi	0x05, 5	; 5
 33a:	80 91 58 01 	lds	r24, 0x0158
 33e:	87 bd       	out	0x27, r24	; 39
 340:	80 91 56 01 	lds	r24, 0x0156
 344:	88 bd       	out	0x28, r24	; 40
 346:	08 95       	ret

00000348 <waypoint_lab>:
 348:	80 91 62 01 	lds	r24, 0x0162
 34c:	81 11       	cpse	r24, r1
 34e:	17 c0       	rjmp	.+46     	; 0x37e <waypoint_lab+0x36>
 350:	80 91 3c 01 	lds	r24, 0x013C
 354:	90 91 3d 01 	lds	r25, 0x013D
 358:	40 97       	sbiw	r24, 0x10	; 16
 35a:	5c f0       	brlt	.+22     	; 0x372 <waypoint_lab+0x2a>
 35c:	85 b1       	in	r24, 0x05	; 5
 35e:	15 b8       	out	0x05, r1	; 5
 360:	80 91 58 01 	lds	r24, 0x0158
 364:	87 bd       	out	0x27, r24	; 39
 366:	80 91 56 01 	lds	r24, 0x0156
 36a:	88 bd       	out	0x28, r24	; 40
 36c:	10 92 61 01 	sts	0x0161, r1
 370:	08 95       	ret
 372:	81 e0       	ldi	r24, 0x01	; 1
 374:	80 93 62 01 	sts	0x0162, r24
 378:	80 93 63 01 	sts	0x0163, r24
 37c:	08 95       	ret
 37e:	80 91 63 01 	lds	r24, 0x0163
 382:	88 23       	and	r24, r24
 384:	61 f0       	breq	.+24     	; 0x39e <waypoint_lab+0x56>
 386:	80 91 5f 01 	lds	r24, 0x015F
 38a:	90 91 60 01 	lds	r25, 0x0160
 38e:	01 97       	sbiw	r24, 0x01	; 1
 390:	11 f4       	brne	.+4      	; 0x396 <waypoint_lab+0x4e>
 392:	c8 df       	rcall	.-112    	; 0x324 <turn_left>
 394:	01 c0       	rjmp	.+2      	; 0x398 <waypoint_lab+0x50>
 396:	cf df       	rcall	.-98     	; 0x336 <turn_right>
 398:	10 92 63 01 	sts	0x0163, r1
 39c:	08 95       	ret
 39e:	80 91 52 01 	lds	r24, 0x0152
 3a2:	90 91 53 01 	lds	r25, 0x0153
 3a6:	01 97       	sbiw	r24, 0x01	; 1
 3a8:	a1 f4       	brne	.+40     	; 0x3d2 <waypoint_lab+0x8a>
 3aa:	81 e0       	ldi	r24, 0x01	; 1
 3ac:	80 93 61 01 	sts	0x0161, r24
 3b0:	10 92 51 01 	sts	0x0151, r1
 3b4:	10 92 50 01 	sts	0x0150, r1
 3b8:	10 92 53 01 	sts	0x0153, r1
 3bc:	10 92 52 01 	sts	0x0152, r1
 3c0:	85 b1       	in	r24, 0x05	; 5
 3c2:	15 b8       	out	0x05, r1	; 5
 3c4:	80 91 58 01 	lds	r24, 0x0158
 3c8:	87 bd       	out	0x27, r24	; 39
 3ca:	80 91 56 01 	lds	r24, 0x0156
 3ce:	88 bd       	out	0x28, r24	; 40
 3d0:	08 95       	ret
 3d2:	80 91 61 01 	lds	r24, 0x0161
 3d6:	88 23       	and	r24, r24
 3d8:	61 f0       	breq	.+24     	; 0x3f2 <waypoint_lab+0xaa>
 3da:	80 91 50 01 	lds	r24, 0x0150
 3de:	90 91 51 01 	lds	r25, 0x0151
 3e2:	05 97       	sbiw	r24, 0x05	; 5
 3e4:	34 f0       	brlt	.+12     	; 0x3f2 <waypoint_lab+0xaa>
 3e6:	10 92 77 01 	sts	0x0177, r1
 3ea:	10 92 76 01 	sts	0x0176, r1
 3ee:	10 92 62 01 	sts	0x0162, r1
 3f2:	08 95       	ret

000003f4 <oneway_turn_lab>:
 3f4:	80 91 62 01 	lds	r24, 0x0162
 3f8:	81 11       	cpse	r24, r1
 3fa:	17 c0       	rjmp	.+46     	; 0x42a <oneway_turn_lab+0x36>
 3fc:	80 91 3c 01 	lds	r24, 0x013C
 400:	90 91 3d 01 	lds	r25, 0x013D
 404:	40 97       	sbiw	r24, 0x10	; 16
 406:	5c f0       	brlt	.+22     	; 0x41e <oneway_turn_lab+0x2a>
 408:	85 b1       	in	r24, 0x05	; 5
 40a:	15 b8       	out	0x05, r1	; 5
 40c:	80 91 58 01 	lds	r24, 0x0158
 410:	87 bd       	out	0x27, r24	; 39
 412:	80 91 56 01 	lds	r24, 0x0156
 416:	88 bd       	out	0x28, r24	; 40
 418:	10 92 61 01 	sts	0x0161, r1
 41c:	08 95       	ret
 41e:	81 e0       	ldi	r24, 0x01	; 1
 420:	80 93 62 01 	sts	0x0162, r24
 424:	80 93 63 01 	sts	0x0163, r24
 428:	08 95       	ret
 42a:	80 91 63 01 	lds	r24, 0x0163
 42e:	88 23       	and	r24, r24
 430:	89 f0       	breq	.+34     	; 0x454 <oneway_turn_lab+0x60>
 432:	80 91 78 01 	lds	r24, 0x0178
 436:	90 91 79 01 	lds	r25, 0x0179
 43a:	ca 97       	sbiw	r24, 0x3a	; 58
 43c:	14 f0       	brlt	.+4      	; 0x442 <oneway_turn_lab+0x4e>
 43e:	72 df       	rcall	.-284    	; 0x324 <turn_left>
 440:	07 c0       	rjmp	.+14     	; 0x450 <oneway_turn_lab+0x5c>
 442:	80 91 8b 01 	lds	r24, 0x018B
 446:	90 91 8c 01 	lds	r25, 0x018C
 44a:	ca 97       	sbiw	r24, 0x3a	; 58
 44c:	0c f0       	brlt	.+2      	; 0x450 <oneway_turn_lab+0x5c>
 44e:	73 df       	rcall	.-282    	; 0x336 <turn_right>
 450:	10 92 63 01 	sts	0x0163, r1
 454:	08 95       	ret

00000456 <regulator>:
 456:	80 91 46 01 	lds	r24, 0x0146
 45a:	90 91 47 01 	lds	r25, 0x0147
 45e:	01 97       	sbiw	r24, 0x01	; 1
 460:	11 f4       	brne	.+4      	; 0x466 <regulator+0x10>
 462:	01 cf       	rjmp	.-510    	; 0x266 <linje>
 464:	08 95       	ret
 466:	80 91 76 01 	lds	r24, 0x0176
 46a:	90 91 77 01 	lds	r25, 0x0177
 46e:	01 97       	sbiw	r24, 0x01	; 1
 470:	09 f4       	brne	.+2      	; 0x474 <regulator+0x1e>
 472:	6a df       	rcall	.-300    	; 0x348 <waypoint_lab>
 474:	81 e0       	ldi	r24, 0x01	; 1
 476:	90 e0       	ldi	r25, 0x00	; 0
 478:	90 93 75 01 	sts	0x0175, r25
 47c:	80 93 74 01 	sts	0x0174, r24
 480:	b9 df       	rcall	.-142    	; 0x3f4 <oneway_turn_lab>
 482:	96 ce       	rjmp	.-724    	; 0x1b0 <labyreg>
 484:	08 95       	ret

00000486 <initengine>:
 486:	84 b5       	in	r24, 0x24	; 36
 488:	83 6a       	ori	r24, 0xA3	; 163
 48a:	84 bd       	out	0x24, r24	; 36
 48c:	17 bc       	out	0x27, r1	; 39
 48e:	18 bc       	out	0x28, r1	; 40
 490:	85 b5       	in	r24, 0x25	; 37
 492:	83 60       	ori	r24, 0x03	; 3
 494:	85 bd       	out	0x25, r24	; 37
 496:	88 e7       	ldi	r24, 0x78	; 120
 498:	84 b9       	out	0x04, r24	; 4
 49a:	85 b1       	in	r24, 0x05	; 5
 49c:	15 b8       	out	0x05, r1	; 5
 49e:	08 95       	ret

000004a0 <timerinit>:
 4a0:	83 e0       	ldi	r24, 0x03	; 3
 4a2:	8a b9       	out	0x0a, r24	; 10
 4a4:	e1 e8       	ldi	r30, 0x81	; 129
 4a6:	f0 e0       	ldi	r31, 0x00	; 0
 4a8:	80 81       	ld	r24, Z
 4aa:	8d 60       	ori	r24, 0x0D	; 13
 4ac:	80 83       	st	Z, r24
 4ae:	80 ea       	ldi	r24, 0xA0	; 160
 4b0:	95 e0       	ldi	r25, 0x05	; 5
 4b2:	90 93 89 00 	sts	0x0089, r25
 4b6:	80 93 88 00 	sts	0x0088, r24
 4ba:	ef e6       	ldi	r30, 0x6F	; 111
 4bc:	f0 e0       	ldi	r31, 0x00	; 0
 4be:	80 81       	ld	r24, Z
 4c0:	82 60       	ori	r24, 0x02	; 2
 4c2:	80 83       	st	Z, r24
 4c4:	b1 9a       	sbi	0x16, 1	; 22
 4c6:	08 95       	ret

000004c8 <__vector_13>:
 4c8:	1f 92       	push	r1
 4ca:	0f 92       	push	r0
 4cc:	0f b6       	in	r0, 0x3f	; 63
 4ce:	0f 92       	push	r0
 4d0:	11 24       	eor	r1, r1
 4d2:	2f 93       	push	r18
 4d4:	3f 93       	push	r19
 4d6:	8f 93       	push	r24
 4d8:	9f 93       	push	r25
 4da:	81 e0       	ldi	r24, 0x01	; 1
 4dc:	90 e0       	ldi	r25, 0x00	; 0
 4de:	90 93 55 01 	sts	0x0155, r25
 4e2:	80 93 54 01 	sts	0x0154, r24
 4e6:	80 91 4e 01 	lds	r24, 0x014E
 4ea:	90 91 4f 01 	lds	r25, 0x014F
 4ee:	8a 30       	cpi	r24, 0x0A	; 10
 4f0:	91 05       	cpc	r25, r1
 4f2:	2c f4       	brge	.+10     	; 0x4fe <__vector_13+0x36>
 4f4:	01 96       	adiw	r24, 0x01	; 1
 4f6:	90 93 4f 01 	sts	0x014F, r25
 4fa:	80 93 4e 01 	sts	0x014E, r24
 4fe:	80 91 4c 01 	lds	r24, 0x014C
 502:	90 91 4d 01 	lds	r25, 0x014D
 506:	01 96       	adiw	r24, 0x01	; 1
 508:	90 93 4d 01 	sts	0x014D, r25
 50c:	80 93 4c 01 	sts	0x014C, r24
 510:	20 91 50 01 	lds	r18, 0x0150
 514:	30 91 51 01 	lds	r19, 0x0151
 518:	2f 5f       	subi	r18, 0xFF	; 255
 51a:	3f 4f       	sbci	r19, 0xFF	; 255
 51c:	30 93 51 01 	sts	0x0151, r19
 520:	20 93 50 01 	sts	0x0150, r18
 524:	4d 97       	sbiw	r24, 0x1d	; 29
 526:	24 f0       	brlt	.+8      	; 0x530 <__vector_13+0x68>
 528:	10 92 4d 01 	sts	0x014D, r1
 52c:	10 92 4c 01 	sts	0x014C, r1
 530:	9f 91       	pop	r25
 532:	8f 91       	pop	r24
 534:	3f 91       	pop	r19
 536:	2f 91       	pop	r18
 538:	0f 90       	pop	r0
 53a:	0f be       	out	0x3f, r0	; 63
 53c:	0f 90       	pop	r0
 53e:	1f 90       	pop	r1
 540:	18 95       	reti

00000542 <interrupt_init>:
 542:	8d b3       	in	r24, 0x1d	; 29
 544:	86 60       	ori	r24, 0x06	; 6
 546:	8d bb       	out	0x1d, r24	; 29
 548:	e9 e6       	ldi	r30, 0x69	; 105
 54a:	f0 e0       	ldi	r31, 0x00	; 0
 54c:	80 81       	ld	r24, Z
 54e:	88 62       	ori	r24, 0x28	; 40
 550:	80 83       	st	Z, r24
 552:	08 95       	ret

00000554 <__vector_2>:
 554:	1f 92       	push	r1
 556:	0f 92       	push	r0
 558:	0f b6       	in	r0, 0x3f	; 63
 55a:	0f 92       	push	r0
 55c:	11 24       	eor	r1, r1
 55e:	8f 93       	push	r24
 560:	9f 93       	push	r25
 562:	80 91 5c 01 	lds	r24, 0x015C
 566:	90 91 5d 01 	lds	r25, 0x015D
 56a:	01 97       	sbiw	r24, 0x01	; 1
 56c:	39 f4       	brne	.+14     	; 0x57c <__vector_2+0x28>
 56e:	10 92 5d 01 	sts	0x015D, r1
 572:	10 92 5c 01 	sts	0x015C, r1
 576:	59 9a       	sbi	0x0b, 1	; 11
 578:	58 98       	cbi	0x0b, 0	; 11
 57a:	0c c0       	rjmp	.+24     	; 0x594 <__vector_2+0x40>
 57c:	10 92 5b 01 	sts	0x015B, r1
 580:	10 92 5a 01 	sts	0x015A, r1
 584:	81 e0       	ldi	r24, 0x01	; 1
 586:	90 e0       	ldi	r25, 0x00	; 0
 588:	90 93 5d 01 	sts	0x015D, r25
 58c:	80 93 5c 01 	sts	0x015C, r24
 590:	58 9a       	sbi	0x0b, 0	; 11
 592:	59 98       	cbi	0x0b, 1	; 11
 594:	e1 9a       	sbi	0x1c, 1	; 28
 596:	9f 91       	pop	r25
 598:	8f 91       	pop	r24
 59a:	0f 90       	pop	r0
 59c:	0f be       	out	0x3f, r0	; 63
 59e:	0f 90       	pop	r0
 5a0:	1f 90       	pop	r1
 5a2:	18 95       	reti

000005a4 <__vector_3>:
 5a4:	1f 92       	push	r1
 5a6:	0f 92       	push	r0
 5a8:	0f b6       	in	r0, 0x3f	; 63
 5aa:	0f 92       	push	r0
 5ac:	11 24       	eor	r1, r1
 5ae:	8f 93       	push	r24
 5b0:	9f 93       	push	r25
 5b2:	80 91 5a 01 	lds	r24, 0x015A
 5b6:	90 91 5b 01 	lds	r25, 0x015B
 5ba:	89 2b       	or	r24, r25
 5bc:	39 f4       	brne	.+14     	; 0x5cc <__vector_3+0x28>
 5be:	81 e0       	ldi	r24, 0x01	; 1
 5c0:	90 e0       	ldi	r25, 0x00	; 0
 5c2:	90 93 5b 01 	sts	0x015B, r25
 5c6:	80 93 5a 01 	sts	0x015A, r24
 5ca:	04 c0       	rjmp	.+8      	; 0x5d4 <__vector_3+0x30>
 5cc:	10 92 5b 01 	sts	0x015B, r1
 5d0:	10 92 5a 01 	sts	0x015A, r1
 5d4:	e2 9a       	sbi	0x1c, 2	; 28
 5d6:	9f 91       	pop	r25
 5d8:	8f 91       	pop	r24
 5da:	0f 90       	pop	r0
 5dc:	0f be       	out	0x3f, r0	; 63
 5de:	0f 90       	pop	r0
 5e0:	1f 90       	pop	r1
 5e2:	18 95       	reti

000005e4 <i2c_setup>:
 5e4:	88 23       	and	r24, r24
 5e6:	69 f0       	breq	.+26     	; 0x602 <i2c_setup+0x1e>
 5e8:	3e 98       	cbi	0x07, 6	; 7
 5ea:	3f 98       	cbi	0x07, 7	; 7
 5ec:	e8 9a       	sbi	0x1d, 0	; 29
 5ee:	e9 e6       	ldi	r30, 0x69	; 105
 5f0:	f0 e0       	ldi	r31, 0x00	; 0
 5f2:	80 81       	ld	r24, Z
 5f4:	83 60       	ori	r24, 0x03	; 3
 5f6:	80 83       	st	Z, r24
 5f8:	80 e1       	ldi	r24, 0x10	; 16
 5fa:	80 93 b8 00 	sts	0x00B8, r24
 5fe:	10 92 b9 00 	sts	0x00B9, r1
 602:	08 95       	ret

00000604 <i2c_recive>:
 604:	ec eb       	ldi	r30, 0xBC	; 188
 606:	f0 e0       	ldi	r31, 0x00	; 0
 608:	90 81       	ld	r25, Z
 60a:	94 6a       	ori	r25, 0xA4	; 164
 60c:	90 83       	st	Z, r25
 60e:	90 81       	ld	r25, Z
 610:	99 23       	and	r25, r25
 612:	ec f7       	brge	.-6      	; 0x60e <i2c_recive+0xa>
 614:	90 91 b9 00 	lds	r25, 0x00B9
 618:	98 7f       	andi	r25, 0xF8	; 248
 61a:	98 30       	cpi	r25, 0x08	; 8
 61c:	29 f0       	breq	.+10     	; 0x628 <i2c_recive+0x24>
 61e:	84 e9       	ldi	r24, 0x94	; 148
 620:	80 93 bc 00 	sts	0x00BC, r24
 624:	80 e0       	ldi	r24, 0x00	; 0
 626:	08 95       	ret
 628:	81 60       	ori	r24, 0x01	; 1
 62a:	80 93 bb 00 	sts	0x00BB, r24
 62e:	84 e8       	ldi	r24, 0x84	; 132
 630:	80 93 bc 00 	sts	0x00BC, r24
 634:	ec eb       	ldi	r30, 0xBC	; 188
 636:	f0 e0       	ldi	r31, 0x00	; 0
 638:	80 81       	ld	r24, Z
 63a:	88 23       	and	r24, r24
 63c:	ec f7       	brge	.-6      	; 0x638 <i2c_recive+0x34>
 63e:	80 91 b9 00 	lds	r24, 0x00B9
 642:	88 7f       	andi	r24, 0xF8	; 248
 644:	80 34       	cpi	r24, 0x40	; 64
 646:	29 f0       	breq	.+10     	; 0x652 <i2c_recive+0x4e>
 648:	84 e9       	ldi	r24, 0x94	; 148
 64a:	80 93 bc 00 	sts	0x00BC, r24
 64e:	80 e0       	ldi	r24, 0x00	; 0
 650:	08 95       	ret
 652:	ec eb       	ldi	r30, 0xBC	; 188
 654:	f0 e0       	ldi	r31, 0x00	; 0
 656:	80 81       	ld	r24, Z
 658:	84 68       	ori	r24, 0x84	; 132
 65a:	80 83       	st	Z, r24
 65c:	80 81       	ld	r24, Z
 65e:	88 23       	and	r24, r24
 660:	ec f7       	brge	.-6      	; 0x65c <i2c_recive+0x58>
 662:	80 91 bb 00 	lds	r24, 0x00BB
 666:	94 e9       	ldi	r25, 0x94	; 148
 668:	90 93 bc 00 	sts	0x00BC, r25
 66c:	08 95       	ret

0000066e <i2c_store_data>:
 66e:	20 91 4a 01 	lds	r18, 0x014A
 672:	30 91 4b 01 	lds	r19, 0x014B
 676:	21 15       	cp	r18, r1
 678:	31 05       	cpc	r19, r1
 67a:	89 f4       	brne	.+34     	; 0x69e <i2c_store_data+0x30>
 67c:	28 2f       	mov	r18, r24
 67e:	22 95       	swap	r18
 680:	2f 70       	andi	r18, 0x0F	; 15
 682:	30 e0       	ldi	r19, 0x00	; 0
 684:	30 93 49 01 	sts	0x0149, r19
 688:	20 93 48 01 	sts	0x0148, r18
 68c:	80 93 7a 01 	sts	0x017A, r24
 690:	81 e0       	ldi	r24, 0x01	; 1
 692:	90 e0       	ldi	r25, 0x00	; 0
 694:	90 93 4b 01 	sts	0x014B, r25
 698:	80 93 4a 01 	sts	0x014A, r24
 69c:	16 c0       	rjmp	.+44     	; 0x6ca <i2c_store_data+0x5c>
 69e:	40 91 48 01 	lds	r20, 0x0148
 6a2:	50 91 49 01 	lds	r21, 0x0149
 6a6:	24 17       	cp	r18, r20
 6a8:	35 07       	cpc	r19, r21
 6aa:	5c f4       	brge	.+22     	; 0x6c2 <i2c_store_data+0x54>
 6ac:	f9 01       	movw	r30, r18
 6ae:	e6 58       	subi	r30, 0x86	; 134
 6b0:	fe 4f       	sbci	r31, 0xFE	; 254
 6b2:	80 83       	st	Z, r24
 6b4:	2f 5f       	subi	r18, 0xFF	; 255
 6b6:	3f 4f       	sbci	r19, 0xFF	; 255
 6b8:	30 93 4b 01 	sts	0x014B, r19
 6bc:	20 93 4a 01 	sts	0x014A, r18
 6c0:	04 c0       	rjmp	.+8      	; 0x6ca <i2c_store_data+0x5c>
 6c2:	f9 01       	movw	r30, r18
 6c4:	e6 58       	subi	r30, 0x86	; 134
 6c6:	fe 4f       	sbci	r31, 0xFE	; 254
 6c8:	80 83       	st	Z, r24
 6ca:	20 91 4a 01 	lds	r18, 0x014A
 6ce:	30 91 4b 01 	lds	r19, 0x014B
 6d2:	80 91 48 01 	lds	r24, 0x0148
 6d6:	90 91 49 01 	lds	r25, 0x0149
 6da:	28 17       	cp	r18, r24
 6dc:	39 07       	cpc	r19, r25
 6de:	44 f0       	brlt	.+16     	; 0x6f0 <i2c_store_data+0x82>
 6e0:	81 e0       	ldi	r24, 0x01	; 1
 6e2:	80 93 5e 01 	sts	0x015E, r24
 6e6:	10 92 4b 01 	sts	0x014B, r1
 6ea:	10 92 4a 01 	sts	0x014A, r1
 6ee:	e8 98       	cbi	0x1d, 0	; 29
 6f0:	08 95       	ret

000006f2 <__vector_1>:
 6f2:	1f 92       	push	r1
 6f4:	0f 92       	push	r0
 6f6:	0f b6       	in	r0, 0x3f	; 63
 6f8:	0f 92       	push	r0
 6fa:	11 24       	eor	r1, r1
 6fc:	0b b6       	in	r0, 0x3b	; 59
 6fe:	0f 92       	push	r0
 700:	2f 93       	push	r18
 702:	3f 93       	push	r19
 704:	4f 93       	push	r20
 706:	5f 93       	push	r21
 708:	6f 93       	push	r22
 70a:	7f 93       	push	r23
 70c:	8f 93       	push	r24
 70e:	9f 93       	push	r25
 710:	af 93       	push	r26
 712:	bf 93       	push	r27
 714:	ef 93       	push	r30
 716:	ff 93       	push	r31
 718:	00 00       	nop
 71a:	36 9b       	sbis	0x06, 6	; 6
 71c:	04 c0       	rjmp	.+8      	; 0x726 <__vector_1+0x34>
 71e:	82 e0       	ldi	r24, 0x02	; 2
 720:	71 df       	rcall	.-286    	; 0x604 <i2c_recive>
 722:	a5 df       	rcall	.-182    	; 0x66e <i2c_store_data>
 724:	05 c0       	rjmp	.+10     	; 0x730 <__vector_1+0x3e>
 726:	37 9b       	sbis	0x06, 7	; 6
 728:	03 c0       	rjmp	.+6      	; 0x730 <__vector_1+0x3e>
 72a:	86 e0       	ldi	r24, 0x06	; 6
 72c:	6b df       	rcall	.-298    	; 0x604 <i2c_recive>
 72e:	9f df       	rcall	.-194    	; 0x66e <i2c_store_data>
 730:	ff 91       	pop	r31
 732:	ef 91       	pop	r30
 734:	bf 91       	pop	r27
 736:	af 91       	pop	r26
 738:	9f 91       	pop	r25
 73a:	8f 91       	pop	r24
 73c:	7f 91       	pop	r23
 73e:	6f 91       	pop	r22
 740:	5f 91       	pop	r21
 742:	4f 91       	pop	r20
 744:	3f 91       	pop	r19
 746:	2f 91       	pop	r18
 748:	0f 90       	pop	r0
 74a:	0b be       	out	0x3b, r0	; 59
 74c:	0f 90       	pop	r0
 74e:	0f be       	out	0x3f, r0	; 63
 750:	0f 90       	pop	r0
 752:	1f 90       	pop	r1
 754:	18 95       	reti

00000756 <i2c_handel_data>:
 756:	80 91 5e 01 	lds	r24, 0x015E
 75a:	88 23       	and	r24, r24
 75c:	09 f4       	brne	.+2      	; 0x760 <i2c_handel_data+0xa>
 75e:	69 c0       	rjmp	.+210    	; 0x832 <i2c_handel_data+0xdc>
 760:	10 92 5e 01 	sts	0x015E, r1
 764:	20 91 7a 01 	lds	r18, 0x017A
 768:	e2 2f       	mov	r30, r18
 76a:	ef 70       	andi	r30, 0x0F	; 15
 76c:	8e 2f       	mov	r24, r30
 76e:	90 e0       	ldi	r25, 0x00	; 0
 770:	8f 30       	cpi	r24, 0x0F	; 15
 772:	91 05       	cpc	r25, r1
 774:	08 f0       	brcs	.+2      	; 0x778 <i2c_handel_data+0x22>
 776:	5c c0       	rjmp	.+184    	; 0x830 <i2c_handel_data+0xda>
 778:	fc 01       	movw	r30, r24
 77a:	ea 5b       	subi	r30, 0xBA	; 186
 77c:	ff 4f       	sbci	r31, 0xFF	; 255
 77e:	bc c0       	rjmp	.+376    	; 0x8f8 <__tablejump2__>
 780:	9b b1       	in	r25, 0x0b	; 11
 782:	81 e0       	ldi	r24, 0x01	; 1
 784:	89 27       	eor	r24, r25
 786:	8b b9       	out	0x0b, r24	; 11
 788:	53 c0       	rjmp	.+166    	; 0x830 <i2c_handel_data+0xda>
 78a:	80 91 7b 01 	lds	r24, 0x017B
 78e:	90 e0       	ldi	r25, 0x00	; 0
 790:	98 2f       	mov	r25, r24
 792:	88 27       	eor	r24, r24
 794:	82 0f       	add	r24, r18
 796:	91 1d       	adc	r25, r1
 798:	90 93 8a 01 	sts	0x018A, r25
 79c:	80 93 89 01 	sts	0x0189, r24
 7a0:	47 c0       	rjmp	.+142    	; 0x830 <i2c_handel_data+0xda>
 7a2:	81 e0       	ldi	r24, 0x01	; 1
 7a4:	90 e0       	ldi	r25, 0x00	; 0
 7a6:	90 93 73 01 	sts	0x0173, r25
 7aa:	80 93 72 01 	sts	0x0172, r24
 7ae:	10 92 4f 01 	sts	0x014F, r1
 7b2:	10 92 4e 01 	sts	0x014E, r1
 7b6:	58 9a       	sbi	0x0b, 0	; 11
 7b8:	3b c0       	rjmp	.+118    	; 0x830 <i2c_handel_data+0xda>
 7ba:	58 9a       	sbi	0x0b, 0	; 11
 7bc:	82 e0       	ldi	r24, 0x02	; 2
 7be:	90 e0       	ldi	r25, 0x00	; 0
 7c0:	90 93 73 01 	sts	0x0173, r25
 7c4:	80 93 72 01 	sts	0x0172, r24
 7c8:	10 92 4f 01 	sts	0x014F, r1
 7cc:	10 92 4e 01 	sts	0x014E, r1
 7d0:	2f c0       	rjmp	.+94     	; 0x830 <i2c_handel_data+0xda>
 7d2:	58 9a       	sbi	0x0b, 0	; 11
 7d4:	84 e0       	ldi	r24, 0x04	; 4
 7d6:	90 e0       	ldi	r25, 0x00	; 0
 7d8:	90 93 73 01 	sts	0x0173, r25
 7dc:	80 93 72 01 	sts	0x0172, r24
 7e0:	10 92 4f 01 	sts	0x014F, r1
 7e4:	10 92 4e 01 	sts	0x014E, r1
 7e8:	23 c0       	rjmp	.+70     	; 0x830 <i2c_handel_data+0xda>
 7ea:	58 9a       	sbi	0x0b, 0	; 11
 7ec:	83 e0       	ldi	r24, 0x03	; 3
 7ee:	90 e0       	ldi	r25, 0x00	; 0
 7f0:	90 93 73 01 	sts	0x0173, r25
 7f4:	80 93 72 01 	sts	0x0172, r24
 7f8:	10 92 4f 01 	sts	0x014F, r1
 7fc:	10 92 4e 01 	sts	0x014E, r1
 800:	17 c0       	rjmp	.+46     	; 0x830 <i2c_handel_data+0xda>
 802:	58 9a       	sbi	0x0b, 0	; 11
 804:	86 e0       	ldi	r24, 0x06	; 6
 806:	90 e0       	ldi	r25, 0x00	; 0
 808:	90 93 73 01 	sts	0x0173, r25
 80c:	80 93 72 01 	sts	0x0172, r24
 810:	10 92 4f 01 	sts	0x014F, r1
 814:	10 92 4e 01 	sts	0x014E, r1
 818:	0b c0       	rjmp	.+22     	; 0x830 <i2c_handel_data+0xda>
 81a:	58 9a       	sbi	0x0b, 0	; 11
 81c:	85 e0       	ldi	r24, 0x05	; 5
 81e:	90 e0       	ldi	r25, 0x00	; 0
 820:	90 93 73 01 	sts	0x0173, r25
 824:	80 93 72 01 	sts	0x0172, r24
 828:	10 92 4f 01 	sts	0x014F, r1
 82c:	10 92 4e 01 	sts	0x014E, r1
 830:	e8 9a       	sbi	0x1d, 0	; 29
 832:	08 95       	ret

00000834 <main>:
				5,  4,  3,  2, 0 };
//*********************************for test only

int main(void)
{
	interrupt_init();
 834:	86 de       	rcall	.-756    	; 0x542 <interrupt_init>
	board_init();
 836:	57 dc       	rcall	.-1874   	; 0xe6 <board_init>
	initengine();
 838:	26 de       	rcall	.-948    	; 0x486 <initengine>
	timerinit();
 83a:	32 de       	rcall	.-924    	; 0x4a0 <timerinit>
	i2c_setup(1);
 83c:	81 e0       	ldi	r24, 0x01	; 1
 83e:	d2 de       	rcall	.-604    	; 0x5e4 <i2c_setup>
	linje_setup();
	sei();
 840:	78 94       	sei
	//***********Set motors speed value here *****************
	left=100;				// kanske räcker med en variable för båda om båda kör exakt lika fort
 842:	84 e6       	ldi	r24, 0x64	; 100
 844:	90 e0       	ldi	r25, 0x00	; 0
 846:	90 93 59 01 	sts	0x0159, r25
 84a:	80 93 58 01 	sts	0x0158, r24
	right=93;
 84e:	8d e5       	ldi	r24, 0x5D	; 93
 850:	90 e0       	ldi	r25, 0x00	; 0
 852:	90 93 57 01 	sts	0x0157, r25
 856:	80 93 56 01 	sts	0x0156, r24
	//********************************************************
	motor_left=left;      
 85a:	84 e6       	ldi	r24, 0x64	; 100
 85c:	87 bd       	out	0x27, r24	; 39
	motor_right=right;
 85e:	80 91 56 01 	lds	r24, 0x0156
 862:	88 bd       	out	0x28, r24	; 40
	while(1){
		i2c_handel_data();  //test av fregulito	
 864:	78 df       	rcall	.-272    	; 0x756 <i2c_handel_data>
			if(drive_mode == 1){						// Drivemode is auto    // (drive_mode == 1 && start == 1)
 866:	80 91 5c 01 	lds	r24, 0x015C
 86a:	90 91 5d 01 	lds	r25, 0x015D
 86e:	81 30       	cpi	r24, 0x01	; 1
 870:	91 05       	cpc	r25, r1
 872:	59 f5       	brne	.+86     	; 0x8ca <main+0x96>
				PORTB &= (0 << motor_dir_left) | (0 << motor_dir_right);		// Set motor direction to forward
 874:	85 b1       	in	r24, 0x05	; 5
 876:	15 b8       	out	0x05, r1	; 5
				current_position = arre[count_arre];	// används för att simulera linjeföljning, arrayen ändras i globala
 878:	e0 91 4c 01 	lds	r30, 0x014C
 87c:	f0 91 4d 01 	lds	r31, 0x014D
 880:	ee 0f       	add	r30, r30
 882:	ff 1f       	adc	r31, r31
 884:	e0 50       	subi	r30, 0x00	; 0
 886:	ff 4f       	sbci	r31, 0xFF	; 255
 888:	80 81       	ld	r24, Z
 88a:	91 81       	ldd	r25, Z+1	; 0x01
 88c:	90 93 65 01 	sts	0x0165, r25
 890:	80 93 64 01 	sts	0x0164, r24
				if(regler_ready==1 && start == 1){
 894:	80 91 54 01 	lds	r24, 0x0154
 898:	90 91 55 01 	lds	r25, 0x0155
 89c:	01 97       	sbiw	r24, 0x01	; 1
 89e:	61 f4       	brne	.+24     	; 0x8b8 <main+0x84>
 8a0:	80 91 5a 01 	lds	r24, 0x015A
 8a4:	90 91 5b 01 	lds	r25, 0x015B
 8a8:	01 97       	sbiw	r24, 0x01	; 1
 8aa:	31 f4       	brne	.+12     	; 0x8b8 <main+0x84>
					regulator();
 8ac:	d4 dd       	rcall	.-1112   	; 0x456 <regulator>
					regler_ready=0;	
 8ae:	10 92 55 01 	sts	0x0155, r1
 8b2:	10 92 54 01 	sts	0x0154, r1
 8b6:	d6 cf       	rjmp	.-84     	; 0x864 <main+0x30>
				}
				else if(start == 0){					// if start is zero then turn off the auto, stops motors
 8b8:	80 91 5a 01 	lds	r24, 0x015A
 8bc:	90 91 5b 01 	lds	r25, 0x015B
 8c0:	89 2b       	or	r24, r25
 8c2:	81 f6       	brne	.-96     	; 0x864 <main+0x30>
					motor_left=0;
 8c4:	17 bc       	out	0x27, r1	; 39
					motor_right=0;
 8c6:	18 bc       	out	0x28, r1	; 40
 8c8:	cd cf       	rjmp	.-102    	; 0x864 <main+0x30>
				}
			}
			else if(drive_mode==0){										// Drivemode is manual
 8ca:	89 2b       	or	r24, r25
 8cc:	59 f6       	brne	.-106    	; 0x864 <main+0x30>
				manual_drive();
 8ce:	0c dc       	rcall	.-2024   	; 0xe8 <manual_drive>
 8d0:	c9 cf       	rjmp	.-110    	; 0x864 <main+0x30>

000008d2 <__divmodhi4>:
 8d2:	97 fb       	bst	r25, 7
 8d4:	07 2e       	mov	r0, r23
 8d6:	16 f4       	brtc	.+4      	; 0x8dc <__divmodhi4+0xa>
 8d8:	00 94       	com	r0
 8da:	06 d0       	rcall	.+12     	; 0x8e8 <__divmodhi4_neg1>
 8dc:	77 fd       	sbrc	r23, 7
 8de:	08 d0       	rcall	.+16     	; 0x8f0 <__divmodhi4_neg2>
 8e0:	14 d0       	rcall	.+40     	; 0x90a <__udivmodhi4>
 8e2:	07 fc       	sbrc	r0, 7
 8e4:	05 d0       	rcall	.+10     	; 0x8f0 <__divmodhi4_neg2>
 8e6:	3e f4       	brtc	.+14     	; 0x8f6 <__divmodhi4_exit>

000008e8 <__divmodhi4_neg1>:
 8e8:	90 95       	com	r25
 8ea:	81 95       	neg	r24
 8ec:	9f 4f       	sbci	r25, 0xFF	; 255
 8ee:	08 95       	ret

000008f0 <__divmodhi4_neg2>:
 8f0:	70 95       	com	r23
 8f2:	61 95       	neg	r22
 8f4:	7f 4f       	sbci	r23, 0xFF	; 255

000008f6 <__divmodhi4_exit>:
 8f6:	08 95       	ret

000008f8 <__tablejump2__>:
 8f8:	ee 0f       	add	r30, r30
 8fa:	ff 1f       	adc	r31, r31
 8fc:	00 24       	eor	r0, r0
 8fe:	00 1c       	adc	r0, r0
 900:	0b be       	out	0x3b, r0	; 59
 902:	07 90       	elpm	r0, Z+
 904:	f6 91       	elpm	r31, Z
 906:	e0 2d       	mov	r30, r0
 908:	09 94       	ijmp

0000090a <__udivmodhi4>:
 90a:	aa 1b       	sub	r26, r26
 90c:	bb 1b       	sub	r27, r27
 90e:	51 e1       	ldi	r21, 0x11	; 17
 910:	07 c0       	rjmp	.+14     	; 0x920 <__udivmodhi4_ep>

00000912 <__udivmodhi4_loop>:
 912:	aa 1f       	adc	r26, r26
 914:	bb 1f       	adc	r27, r27
 916:	a6 17       	cp	r26, r22
 918:	b7 07       	cpc	r27, r23
 91a:	10 f0       	brcs	.+4      	; 0x920 <__udivmodhi4_ep>
 91c:	a6 1b       	sub	r26, r22
 91e:	b7 0b       	sbc	r27, r23

00000920 <__udivmodhi4_ep>:
 920:	88 1f       	adc	r24, r24
 922:	99 1f       	adc	r25, r25
 924:	5a 95       	dec	r21
 926:	a9 f7       	brne	.-22     	; 0x912 <__udivmodhi4_loop>
 928:	80 95       	com	r24
 92a:	90 95       	com	r25
 92c:	bc 01       	movw	r22, r24
 92e:	cd 01       	movw	r24, r26
 930:	08 95       	ret

00000932 <_exit>:
 932:	f8 94       	cli

00000934 <__stop_program>:
 934:	ff cf       	rjmp	.-2      	; 0x934 <__stop_program>
